target datalayout = "e-m:e-p270:32:32-p271:32:32-p272:64:64-i64:64-i128:128-f80:128-n8:16:32:64-S128"
target triple = "x86_64-unknown-linux-gnu"

%"class.std::set.0" = type { %"class.std::_Rb_tree.1" }
%"class.std::_Rb_tree.1" = type { %"struct.std::_Rb_tree<QuantLib::Observer *, QuantLib::Observer *, std::_Identity<QuantLib::Observer *>, std::less<QuantLib::Observer *>>::_Rb_tree_impl" }
%"struct.std::_Rb_tree<QuantLib::Observer *, QuantLib::Observer *, std::_Identity<QuantLib::Observer *>, std::less<QuantLib::Observer *>>::_Rb_tree_impl" = type { [8 x i8], %"struct.std::_Rb_tree_header" }
%"struct.std::_Rb_tree_header" = type { %"struct.std::_Rb_tree_node_base", i64 }
%"struct.std::_Rb_tree_node_base" = type { i32, ptr, ptr, ptr }
%"class.std::set" = type { %"class.std::_Rb_tree" }
%"class.std::_Rb_tree" = type { %"struct.std::_Rb_tree<boost::shared_ptr<QuantLib::Observable>, boost::shared_ptr<QuantLib::Observable>, std::_Identity<boost::shared_ptr<QuantLib::Observable>>, std::less<boost::shared_ptr<QuantLib::Observable>>>::_Rb_tree_impl" }
%"struct.std::_Rb_tree<boost::shared_ptr<QuantLib::Observable>, boost::shared_ptr<QuantLib::Observable>, std::_Identity<boost::shared_ptr<QuantLib::Observable>>, std::less<boost::shared_ptr<QuantLib::Observable>>>::_Rb_tree_impl" = type { [8 x i8], %"struct.std::_Rb_tree_header" }
%"class.boost::detail::shared_count" = type { ptr }
%"class.QuantLib::Observable" = type { ptr, %"class.std::set.0" }
%"class.QuantLib::FdG2SwaptionEngine" = type { %"class.QuantLib::GenericModelEngine", i64, i64, i64, i64, double, %"struct.QuantLib::FdmSchemeDesc" }
%"class.QuantLib::GenericModelEngine" = type { %"class.QuantLib::GenericEngine", %"class.QuantLib::Handle" }
%"class.QuantLib::GenericEngine" = type { %"class.QuantLib::PricingEngine", %"class.QuantLib::Observer", %"class.QuantLib::Swaption::arguments", %"class.QuantLib::Instrument::results" }
%"class.QuantLib::PricingEngine" = type { %"class.QuantLib::Observable" }
%"class.QuantLib::Observer" = type { ptr, %"class.std::set" }
%"class.QuantLib::Swaption::arguments" = type { %"class.QuantLib::FixedVsFloatingSwap::arguments", %"class.QuantLib::Option::arguments", %"class.boost::shared_ptr.46", i32, i32 }
%"class.QuantLib::FixedVsFloatingSwap::arguments" = type { %"class.QuantLib::Swap::arguments", i32, double, %"class.std::vector", %"class.std::vector.41", %"class.std::vector.41", %"class.std::vector", %"class.std::vector", %"class.std::vector.41", %"class.std::vector.41", %"class.std::vector.41", %"class.std::vector", %"class.std::vector", %"class.std::vector" }
%"class.QuantLib::Swap::arguments" = type { %"class.QuantLib::PricingEngine::arguments", %"class.std::vector.36", %"class.std::vector" }
%"class.QuantLib::PricingEngine::arguments" = type { ptr }
%"class.std::vector.36" = type { %"struct.std::_Vector_base.37" }
%"struct.std::_Vector_base.37" = type { %"struct.std::_Vector_base<std::vector<boost::shared_ptr<QuantLib::CashFlow>>, std::allocator<std::vector<boost::shared_ptr<QuantLib::CashFlow>>>>::_Vector_impl" }
%"struct.std::_Vector_base<std::vector<boost::shared_ptr<QuantLib::CashFlow>>, std::allocator<std::vector<boost::shared_ptr<QuantLib::CashFlow>>>>::_Vector_impl" = type { %"struct.std::_Vector_base<std::vector<boost::shared_ptr<QuantLib::CashFlow>>, std::allocator<std::vector<boost::shared_ptr<QuantLib::CashFlow>>>>::_Vector_impl_data" }
%"struct.std::_Vector_base<std::vector<boost::shared_ptr<QuantLib::CashFlow>>, std::allocator<std::vector<boost::shared_ptr<QuantLib::CashFlow>>>>::_Vector_impl_data" = type { ptr, ptr, ptr }
%"class.std::vector.41" = type { %"struct.std::_Vector_base.42" }
%"struct.std::_Vector_base.42" = type { %"struct.std::_Vector_base<QuantLib::Date, std::allocator<QuantLib::Date>>::_Vector_impl" }
%"struct.std::_Vector_base<QuantLib::Date, std::allocator<QuantLib::Date>>::_Vector_impl" = type { %"struct.std::_Vector_base<QuantLib::Date, std::allocator<QuantLib::Date>>::_Vector_impl_data" }
%"struct.std::_Vector_base<QuantLib::Date, std::allocator<QuantLib::Date>>::_Vector_impl_data" = type { ptr, ptr, ptr }
%"class.std::vector" = type { %"struct.std::_Vector_base" }
%"struct.std::_Vector_base" = type { %"struct.std::_Vector_base<double, std::allocator<double>>::_Vector_impl" }
%"struct.std::_Vector_base<double, std::allocator<double>>::_Vector_impl" = type { %"struct.std::_Vector_base<double, std::allocator<double>>::_Vector_impl_data" }
%"struct.std::_Vector_base<double, std::allocator<double>>::_Vector_impl_data" = type { ptr, ptr, ptr }
%"class.QuantLib::Option::arguments" = type { %"class.QuantLib::PricingEngine::arguments", %"class.boost::shared_ptr.27", %"class.boost::shared_ptr.28" }
%"class.boost::shared_ptr.27" = type { ptr, %"class.boost::detail::shared_count" }
%"class.boost::shared_ptr.28" = type { ptr, %"class.boost::detail::shared_count" }
%"class.boost::shared_ptr.46" = type { ptr, %"class.boost::detail::shared_count" }
%"class.QuantLib::Instrument::results" = type { %"class.QuantLib::PricingEngine::results", double, double, %"class.QuantLib::Date", %"class.std::map.20" }
%"class.QuantLib::PricingEngine::results" = type { ptr }
%"class.QuantLib::Date" = type { i64 }
%"class.std::map.20" = type { %"class.std::_Rb_tree.21" }
%"class.std::_Rb_tree.21" = type { %"struct.std::_Rb_tree<std::__cxx11::basic_string<char>, std::pair<const std::__cxx11::basic_string<char>, boost::any>, std::_Select1st<std::pair<const std::__cxx11::basic_string<char>, boost::any>>, std::less<std::__cxx11::basic_string<char>>>::_Rb_tree_impl" }
%"struct.std::_Rb_tree<std::__cxx11::basic_string<char>, std::pair<const std::__cxx11::basic_string<char>, boost::any>, std::_Select1st<std::pair<const std::__cxx11::basic_string<char>, boost::any>>, std::less<std::__cxx11::basic_string<char>>>::_Rb_tree_impl" = type { [8 x i8], %"struct.std::_Rb_tree_header" }
%"class.QuantLib::Handle" = type { %"class.boost::shared_ptr.47" }
%"class.boost::shared_ptr.47" = type { ptr, %"class.boost::detail::shared_count" }
%"struct.QuantLib::FdmSchemeDesc" = type { i32, double, double }

; Function Attrs: mustprogress uwtable
define void @_ZN8QuantLib18FdG2SwaptionEngineC2ERKN5boost10shared_ptrINS_2G2EEEmmmmdRKNS_13FdmSchemeDescE(ptr noundef nonnull align 8 dereferenceable(672) %this, ptr noundef nonnull align 8 dereferenceable(16) %model, i64 noundef %tGrid, i64 noundef %xGrid, i64 noundef %yGrid, i64 noundef %dampingSteps, double noundef %invEps, ptr noundef nonnull align 8 dereferenceable(24) %schemeDesc) unnamed_addr #2 align 2 {
entry:
  %this.addr = alloca ptr, align 8
  %model.addr = alloca ptr, align 8
  %tGrid.addr = alloca i64, align 8
  %xGrid.addr = alloca i64, align 8
  %yGrid.addr = alloca i64, align 8
  %dampingSteps.addr = alloca i64, align 8
  %invEps.addr = alloca double, align 8
  %schemeDesc.addr = alloca ptr, align 8
  store ptr %this, ptr %this.addr, align 8, !tbaa !3
  store ptr %model, ptr %model.addr, align 8, !tbaa !3
  store i64 %tGrid, ptr %tGrid.addr, align 8, !tbaa !14
  store i64 %xGrid, ptr %xGrid.addr, align 8, !tbaa !14
  store i64 %yGrid, ptr %yGrid.addr, align 8, !tbaa !14
  store i64 %dampingSteps, ptr %dampingSteps.addr, align 8, !tbaa !14
  store double %invEps, ptr %invEps.addr, align 8, !tbaa !16
  store ptr %schemeDesc, ptr %schemeDesc.addr, align 8, !tbaa !3
  %this1 = load ptr, ptr %this.addr, align 8
  %0 = load ptr, ptr %model.addr, align 8, !tbaa !3
  call void @_ZN8QuantLib18GenericModelEngineINS_2G2ENS_8Swaption9argumentsENS_10Instrument7resultsEEC2ERKN5boost10shared_ptrIS1_EE(ptr noundef nonnull align 8 dereferenceable(608) %this1, ptr noundef nonnull align 8 dereferenceable(16) %0)
  store ptr getelementptr inbounds inrange(-16, 56) ({ [9 x ptr], [6 x ptr] }, ptr @_ZTVN8QuantLib18FdG2SwaptionEngineE, i32 0, i32 0, i32 2), ptr %this1, align 8, !tbaa !12
  %add.ptr = getelementptr inbounds i8, ptr %this1, i64 56
  store ptr getelementptr inbounds inrange(-16, 32) ({ [9 x ptr], [6 x ptr] }, ptr @_ZTVN8QuantLib18FdG2SwaptionEngineE, i32 0, i32 1, i32 2), ptr %add.ptr, align 8, !tbaa !12
  %tGrid_ = getelementptr inbounds nuw %"class.QuantLib::FdG2SwaptionEngine", ptr %this1, i32 0, i32 1
  %1 = load i64, ptr %tGrid.addr, align 8, !tbaa !14
  store i64 %1, ptr %tGrid_, align 8, !tbaa !18
  %xGrid_ = getelementptr inbounds nuw %"class.QuantLib::FdG2SwaptionEngine", ptr %this1, i32 0, i32 2
  %2 = load i64, ptr %xGrid.addr, align 8, !tbaa !14
  store i64 %2, ptr %xGrid_, align 8, !tbaa !71
  %yGrid_ = getelementptr inbounds nuw %"class.QuantLib::FdG2SwaptionEngine", ptr %this1, i32 0, i32 3
  %3 = load i64, ptr %yGrid.addr, align 8, !tbaa !14
  store i64 %3, ptr %yGrid_, align 8, !tbaa !72
  %dampingSteps_ = getelementptr inbounds nuw %"class.QuantLib::FdG2SwaptionEngine", ptr %this1, i32 0, i32 4
  %4 = load i64, ptr %dampingSteps.addr, align 8, !tbaa !14
  store i64 %4, ptr %dampingSteps_, align 8, !tbaa !73
  %invEps_ = getelementptr inbounds nuw %"class.QuantLib::FdG2SwaptionEngine", ptr %this1, i32 0, i32 5
  %5 = load double, ptr %invEps.addr, align 8, !tbaa !16
  store double %5, ptr %invEps_, align 8, !tbaa !74
  %schemeDesc_ = getelementptr inbounds nuw %"class.QuantLib::FdG2SwaptionEngine", ptr %this1, i32 0, i32 6
  %6 = load ptr, ptr %schemeDesc.addr, align 8, !tbaa !3
  call void @llvm.memcpy.p0.p0.i64(ptr align 8 %schemeDesc_, ptr align 8 %6, i64 24, i1 false), !tbaa.struct !75
  ret void
}